; Function Attrs: nounwind uwtable
define ptr @l_Lake_helpScript___boxed(ptr noundef %0) local_unnamed_addr #0 {
  %2 = load ptr, ptr @l_Lake_helpScript___closed__1, align 8, !tbaa !4
  %3 = icmp eq ptr %0, %2
  br i1 %3, label %l_Lake_helpScript.exit, label %4

4:                                                ; preds = %1
  %5 = getelementptr i8, ptr %0, i64 8
  %.val.i.i.i = load i64, ptr %5, align 8, !tbaa !8
  %6 = getelementptr i8, ptr %2, i64 8
  %.val7.i.i.i = load i64, ptr %6, align 8, !tbaa !8
  %7 = icmp eq i64 %.val.i.i.i, %.val7.i.i.i
  br i1 %7, label %lean_string_dec_eq.exit.i, label %lean_string_dec_eq.exit.thread.i

lean_string_dec_eq.exit.i:                        ; preds = %4
  %8 = tail call zeroext i1 @lean_string_eq_cold(ptr noundef nonnull %0, ptr noundef nonnull %2) #3
  br i1 %8, label %l_Lake_helpScript.exit, label %lean_string_dec_eq.exit.thread.i

lean_string_dec_eq.exit.thread.i:                 ; preds = %lean_string_dec_eq.exit.i, %4
  %9 = load ptr, ptr @l_Lake_helpScript___closed__2, align 8, !tbaa !4
  %10 = icmp eq ptr %0, %9
  br i1 %10, label %l_Lake_helpScript.exit, label %11

11:                                               ; preds = %lean_string_dec_eq.exit.thread.i
  %.val.i.i13.i = load i64, ptr %5, align 8, !tbaa !8
  %12 = getelementptr i8, ptr %9, i64 8
  %.val7.i.i14.i = load i64, ptr %12, align 8, !tbaa !8
  %13 = icmp eq i64 %.val.i.i13.i, %.val7.i.i14.i
  br i1 %13, label %lean_string_dec_eq.exit15.i, label %lean_string_dec_eq.exit15.thread.i

lean_string_dec_eq.exit15.i:                      ; preds = %11
  %14 = tail call zeroext i1 @lean_string_eq_cold(ptr noundef nonnull %0, ptr noundef nonnull %9) #3
  br i1 %14, label %l_Lake_helpScript.exit, label %lean_string_dec_eq.exit15.thread.i

lean_string_dec_eq.exit15.thread.i:               ; preds = %lean_string_dec_eq.exit15.i, %11
  %15 = load ptr, ptr @l_Lake_helpScript___closed__3, align 8, !tbaa !4
  %16 = icmp eq ptr %0, %15
  br i1 %16, label %l_Lake_helpScript.exit, label %17

17:                                               ; preds = %lean_string_dec_eq.exit15.thread.i
  %.val.i.i16.i = load i64, ptr %5, align 8, !tbaa !8
  %18 = getelementptr i8, ptr %15, i64 8
  %.val7.i.i17.i = load i64, ptr %18, align 8, !tbaa !8
  %19 = icmp eq i64 %.val.i.i16.i, %.val7.i.i17.i
  br i1 %19, label %lean_string_dec_eq.exit18.i, label %lean_string_dec_eq.exit18.thread.i

lean_string_dec_eq.exit18.i:                      ; preds = %17
  %20 = tail call zeroext i1 @lean_string_eq_cold(ptr noundef nonnull %0, ptr noundef nonnull %15) #3
  %.fr.i = freeze i1 %20
  br i1 %.fr.i, label %l_Lake_helpScript.exit, label %lean_string_dec_eq.exit18.thread.i

lean_string_dec_eq.exit18.thread.i:               ; preds = %lean_string_dec_eq.exit18.i, %17
  br label %l_Lake_helpScript.exit

l_Lake_helpScript.exit:                           ; preds = %1, %lean_string_dec_eq.exit.i, %lean_string_dec_eq.exit.thread.i, %lean_string_dec_eq.exit15.i, %lean_string_dec_eq.exit15.thread.i, %lean_string_dec_eq.exit18.i, %lean_string_dec_eq.exit18.thread.i
  %.2.in.i = phi ptr [ @l_Lake_helpScriptRun, %lean_string_dec_eq.exit15.i ], [ @l_Lake_helpScriptList, %lean_string_dec_eq.exit.i ], [ @l_Lake_helpScriptCli, %lean_string_dec_eq.exit18.thread.i ], [ @l_Lake_helpScriptDoc, %lean_string_dec_eq.exit18.i ], [ @l_Lake_helpScriptList, %1 ], [ @l_Lake_helpScriptRun, %lean_string_dec_eq.exit.thread.i ], [ @l_Lake_helpScriptDoc, %lean_string_dec_eq.exit15.thread.i ]
  %.2.i = load ptr, ptr %.2.in.i, align 8, !tbaa !4
  %21 = ptrtoint ptr %0 to i64
  %22 = and i64 %21, 1
  %.not = icmp eq i64 %22, 0
  br i1 %.not, label %23, label %lean_dec.exit

23:                                               ; preds = %l_Lake_helpScript.exit
  %24 = load i32, ptr %0, align 4, !tbaa !10
  %25 = icmp sgt i32 %24, 1
  br i1 %25, label %26, label %28, !prof !13

26:                                               ; preds = %23
  %27 = add nsw i32 %24, -1
  store i32 %27, ptr %0, align 4, !tbaa !10
  br label %lean_dec.exit

28:                                               ; preds = %23
  %.not.i = icmp eq i32 %24, 0
  br i1 %.not.i, label %lean_dec.exit, label %29

29:                                               ; preds = %28
  tail call void @lean_dec_ref_cold(ptr noundef nonnull %0) #3
  br label %lean_dec.exit

lean_dec.exit:                                    ; preds = %29, %28, %26, %l_Lake_helpScript.exit
  ret ptr %.2.i
}